target datalayout = "e-m:e-p270:32:32-p271:32:32-p272:64:64-i64:64-i128:128-f80:128-n8:16:32:64-S128"
target triple = "x86_64-pc-linux-gnu"

; Function Attrs: nounwind uwtable
define internal void @bayer_gbrg16le_to_rgb24_copy(ptr noundef %0, i32 noundef %1, ptr noundef %2, i32 noundef %3, i32 noundef %4) #0 {
  %6 = alloca ptr, align 8
  %7 = alloca i32, align 4
  %8 = alloca ptr, align 8
  %9 = alloca i32, align 4
  %10 = alloca i32, align 4
  %11 = alloca i32, align 4
  store ptr %0, ptr %6, align 8, !tbaa !4
  store i32 %1, ptr %7, align 4, !tbaa !9
  store ptr %2, ptr %8, align 8, !tbaa !4
  store i32 %3, ptr %9, align 4, !tbaa !9
  store i32 %4, ptr %10, align 4, !tbaa !9
  call void @llvm.lifetime.start.p0(i64 4, ptr %11) #11
  store i32 0, ptr %11, align 4, !tbaa !9
  br label %12

12:                                               ; preds = %164, %5
  %13 = load i32, ptr %11, align 4, !tbaa !9
  %14 = load i32, ptr %10, align 4, !tbaa !9
  %15 = icmp slt i32 %13, %14
  br i1 %15, label %16, label %167

16:                                               ; preds = %12
  %17 = load ptr, ptr %6, align 8, !tbaa !4
  %18 = load i32, ptr %7, align 4, !tbaa !9
  %19 = mul nsw i32 1, %18
  %20 = add nsw i32 %19, 0
  %21 = sext i32 %20 to i64
  %22 = getelementptr inbounds i8, ptr %17, i64 %21
  %23 = load i16, ptr %22, align 1, !tbaa !67
  %24 = zext i16 %23 to i32
  %25 = ashr i32 %24, 8
  %26 = trunc i32 %25 to i8
  %27 = load ptr, ptr %8, align 8, !tbaa !4
  %28 = load i32, ptr %9, align 4, !tbaa !9
  %29 = mul nsw i32 1, %28
  %30 = add nsw i32 %29, 0
  %31 = add nsw i32 %30, 0
  %32 = sext i32 %31 to i64
  %33 = getelementptr inbounds i8, ptr %27, i64 %32
  store i8 %26, ptr %33, align 1, !tbaa !67
  %34 = load ptr, ptr %8, align 8, !tbaa !4
  %35 = load i32, ptr %9, align 4, !tbaa !9
  %36 = mul nsw i32 1, %35
  %37 = add nsw i32 %36, 3
  %38 = add nsw i32 %37, 0
  %39 = sext i32 %38 to i64
  %40 = getelementptr inbounds i8, ptr %34, i64 %39
  store i8 %26, ptr %40, align 1, !tbaa !67
  %41 = load ptr, ptr %8, align 8, !tbaa !4
  %42 = load i32, ptr %9, align 4, !tbaa !9
  %43 = mul nsw i32 0, %42
  %44 = add nsw i32 %43, 3
  %45 = add nsw i32 %44, 0
  %46 = sext i32 %45 to i64
  %47 = getelementptr inbounds i8, ptr %41, i64 %46
  store i8 %26, ptr %47, align 1, !tbaa !67
  %48 = load ptr, ptr %8, align 8, !tbaa !4
  %49 = load i32, ptr %9, align 4, !tbaa !9
  %50 = mul nsw i32 0, %49
  %51 = add nsw i32 %50, 0
  %52 = add nsw i32 %51, 0
  %53 = sext i32 %52 to i64
  %54 = getelementptr inbounds i8, ptr %48, i64 %53
  store i8 %26, ptr %54, align 1, !tbaa !67
  %55 = load ptr, ptr %6, align 8, !tbaa !4
  %56 = load i32, ptr %7, align 4, !tbaa !9
  %57 = mul nsw i32 0, %56
  %58 = add nsw i32 %57, 0
  %59 = sext i32 %58 to i64
  %60 = getelementptr inbounds i8, ptr %55, i64 %59
  %61 = load i16, ptr %60, align 1, !tbaa !67
  %62 = zext i16 %61 to i32
  %63 = ashr i32 %62, 8
  %64 = trunc i32 %63 to i8
  %65 = load ptr, ptr %8, align 8, !tbaa !4
  %66 = load i32, ptr %9, align 4, !tbaa !9
  %67 = mul nsw i32 0, %66
  %68 = add nsw i32 %67, 0
  %69 = add nsw i32 %68, 1
  %70 = sext i32 %69 to i64
  %71 = getelementptr inbounds i8, ptr %65, i64 %70
  store i8 %64, ptr %71, align 1, !tbaa !67
  %72 = load ptr, ptr %6, align 8, !tbaa !4
  %73 = load i32, ptr %7, align 4, !tbaa !9
  %74 = mul nsw i32 1, %73
  %75 = add nsw i32 %74, 2
  %76 = sext i32 %75 to i64
  %77 = getelementptr inbounds i8, ptr %72, i64 %76
  %78 = load i16, ptr %77, align 1, !tbaa !67
  %79 = zext i16 %78 to i32
  %80 = ashr i32 %79, 8
  %81 = trunc i32 %80 to i8
  %82 = load ptr, ptr %8, align 8, !tbaa !4
  %83 = load i32, ptr %9, align 4, !tbaa !9
  %84 = mul nsw i32 1, %83
  %85 = add nsw i32 %84, 3
  %86 = add nsw i32 %85, 1
  %87 = sext i32 %86 to i64
  %88 = getelementptr inbounds i8, ptr %82, i64 %87
  store i8 %81, ptr %88, align 1, !tbaa !67
  %89 = load ptr, ptr %6, align 8, !tbaa !4
  %90 = load i32, ptr %7, align 4, !tbaa !9
  %91 = mul nsw i32 0, %90
  %92 = add nsw i32 %91, 0
  %93 = sext i32 %92 to i64
  %94 = getelementptr inbounds i8, ptr %89, i64 %93
  %95 = load i16, ptr %94, align 1, !tbaa !67
  %96 = zext i16 %95 to i32
  %97 = load ptr, ptr %6, align 8, !tbaa !4
  %98 = load i32, ptr %7, align 4, !tbaa !9
  %99 = mul nsw i32 1, %98
  %100 = add nsw i32 %99, 2
  %101 = sext i32 %100 to i64
  %102 = getelementptr inbounds i8, ptr %97, i64 %101
  %103 = load i16, ptr %102, align 1, !tbaa !67
  %104 = zext i16 %103 to i32
  %105 = add i32 %96, %104
  %106 = lshr i32 %105, 9
  %107 = trunc i32 %106 to i8
  %108 = load ptr, ptr %8, align 8, !tbaa !4
  %109 = load i32, ptr %9, align 4, !tbaa !9
  %110 = mul nsw i32 1, %109
  %111 = add nsw i32 %110, 0
  %112 = add nsw i32 %111, 1
  %113 = sext i32 %112 to i64
  %114 = getelementptr inbounds i8, ptr %108, i64 %113
  store i8 %107, ptr %114, align 1, !tbaa !67
  %115 = load ptr, ptr %8, align 8, !tbaa !4
  %116 = load i32, ptr %9, align 4, !tbaa !9
  %117 = mul nsw i32 0, %116
  %118 = add nsw i32 %117, 3
  %119 = add nsw i32 %118, 1
  %120 = sext i32 %119 to i64
  %121 = getelementptr inbounds i8, ptr %115, i64 %120
  store i8 %107, ptr %121, align 1, !tbaa !67
  %122 = load ptr, ptr %6, align 8, !tbaa !4
  %123 = load i32, ptr %7, align 4, !tbaa !9
  %124 = mul nsw i32 0, %123
  %125 = add nsw i32 %124, 2
  %126 = sext i32 %125 to i64
  %127 = getelementptr inbounds i8, ptr %122, i64 %126
  %128 = load i16, ptr %127, align 1, !tbaa !67
  %129 = zext i16 %128 to i32
  %130 = ashr i32 %129, 8
  %131 = trunc i32 %130 to i8
  %132 = load ptr, ptr %8, align 8, !tbaa !4
  %133 = load i32, ptr %9, align 4, !tbaa !9
  %134 = mul nsw i32 1, %133
  %135 = add nsw i32 %134, 0
  %136 = add nsw i32 %135, 2
  %137 = sext i32 %136 to i64
  %138 = getelementptr inbounds i8, ptr %132, i64 %137
  store i8 %131, ptr %138, align 1, !tbaa !67
  %139 = load ptr, ptr %8, align 8, !tbaa !4
  %140 = load i32, ptr %9, align 4, !tbaa !9
  %141 = mul nsw i32 0, %140
  %142 = add nsw i32 %141, 3
  %143 = add nsw i32 %142, 2
  %144 = sext i32 %143 to i64
  %145 = getelementptr inbounds i8, ptr %139, i64 %144
  store i8 %131, ptr %145, align 1, !tbaa !67
  %146 = load ptr, ptr %8, align 8, !tbaa !4
  %147 = load i32, ptr %9, align 4, !tbaa !9
  %148 = mul nsw i32 0, %147
  %149 = add nsw i32 %148, 0
  %150 = add nsw i32 %149, 2
  %151 = sext i32 %150 to i64
  %152 = getelementptr inbounds i8, ptr %146, i64 %151
  store i8 %131, ptr %152, align 1, !tbaa !67
  %153 = load ptr, ptr %8, align 8, !tbaa !4
  %154 = load i32, ptr %9, align 4, !tbaa !9
  %155 = mul nsw i32 1, %154
  %156 = add nsw i32 %155, 3
  %157 = add nsw i32 %156, 2
  %158 = sext i32 %157 to i64
  %159 = getelementptr inbounds i8, ptr %153, i64 %158
  store i8 %131, ptr %159, align 1, !tbaa !67
  %160 = load ptr, ptr %6, align 8, !tbaa !4
  %161 = getelementptr inbounds i8, ptr %160, i64 4
  store ptr %161, ptr %6, align 8, !tbaa !4
  %162 = load ptr, ptr %8, align 8, !tbaa !4
  %163 = getelementptr inbounds i8, ptr %162, i64 6
  store ptr %163, ptr %8, align 8, !tbaa !4
  br label %164

164:                                              ; preds = %16
  %165 = load i32, ptr %11, align 4, !tbaa !9
  %166 = add nsw i32 %165, 2
  store i32 %166, ptr %11, align 4, !tbaa !9
  br label %12, !llvm.loop !258

167:                                              ; preds = %12
  call void @llvm.lifetime.end.p0(i64 4, ptr %11) #11
  ret void
}