; Function Attrs: nofree norecurse nosync nounwind memory(argmem: readwrite) uwtable
define internal void @bayer_gbrg16le_to_rgb24_copy(ptr noundef readonly captures(none) %0, i32 noundef %1, ptr noundef writeonly captures(none) %2, i32 noundef %3, i32 noundef %4) unnamed_addr #0 {
  %6 = icmp sgt i32 %4, 0
  br i1 %6, label %.lr.ph, label %._crit_edge

.lr.ph:                                           ; preds = %5
  %7 = sext i32 %1 to i64
  %8 = sext i32 %3 to i64
  br label %9

9:                                                ; preds = %.lr.ph, %9
  %.044 = phi i32 [ 0, %.lr.ph ], [ %45, %9 ]
  %.04043 = phi ptr [ %0, %.lr.ph ], [ %43, %9 ]
  %.04142 = phi ptr [ %2, %.lr.ph ], [ %44, %9 ]
  %10 = getelementptr inbounds i8, ptr %.04043, i64 %7
  %11 = load i16, ptr %10, align 1, !tbaa !61
  %12 = lshr i16 %11, 8
  %13 = trunc nuw i16 %12 to i8
  %14 = getelementptr i8, ptr %.04142, i64 %8
  store i8 %13, ptr %14, align 1, !tbaa !61
  %15 = getelementptr i8, ptr %14, i64 3
  store i8 %13, ptr %15, align 1, !tbaa !61
  %16 = getelementptr inbounds nuw i8, ptr %.04142, i64 3
  store i8 %13, ptr %16, align 1, !tbaa !61
  store i8 %13, ptr %.04142, align 1, !tbaa !61
  %17 = load i16, ptr %.04043, align 1, !tbaa !61
  %18 = lshr i16 %17, 8
  %19 = trunc nuw i16 %18 to i8
  %20 = getelementptr inbounds nuw i8, ptr %.04142, i64 1
  store i8 %19, ptr %20, align 1, !tbaa !61
  %21 = getelementptr i8, ptr %10, i64 2
  %22 = load i16, ptr %21, align 1, !tbaa !61
  %23 = lshr i16 %22, 8
  %24 = trunc nuw i16 %23 to i8
  %25 = getelementptr i8, ptr %14, i64 4
  store i8 %24, ptr %25, align 1, !tbaa !61
  %26 = load i16, ptr %.04043, align 1, !tbaa !61
  %27 = zext i16 %26 to i32
  %28 = load i16, ptr %21, align 1, !tbaa !61
  %29 = zext i16 %28 to i32
  %30 = add nuw nsw i32 %29, %27
  %31 = lshr i32 %30, 9
  %32 = trunc nuw i32 %31 to i8
  %33 = getelementptr i8, ptr %14, i64 1
  store i8 %32, ptr %33, align 1, !tbaa !61
  %34 = getelementptr inbounds nuw i8, ptr %.04142, i64 4
  store i8 %32, ptr %34, align 1, !tbaa !61
  %35 = getelementptr inbounds nuw i8, ptr %.04043, i64 2
  %36 = load i16, ptr %35, align 1, !tbaa !61
  %37 = lshr i16 %36, 8
  %38 = trunc nuw i16 %37 to i8
  %39 = getelementptr i8, ptr %14, i64 2
  store i8 %38, ptr %39, align 1, !tbaa !61
  %40 = getelementptr inbounds nuw i8, ptr %.04142, i64 5
  store i8 %38, ptr %40, align 1, !tbaa !61
  %41 = getelementptr inbounds nuw i8, ptr %.04142, i64 2
  store i8 %38, ptr %41, align 1, !tbaa !61
  %42 = getelementptr i8, ptr %14, i64 5
  store i8 %38, ptr %42, align 1, !tbaa !61
  %43 = getelementptr inbounds nuw i8, ptr %.04043, i64 4
  %44 = getelementptr inbounds nuw i8, ptr %.04142, i64 6
  %45 = add nuw nsw i32 %.044, 2
  %46 = icmp slt i32 %45, %4
  br i1 %46, label %9, label %._crit_edge, !llvm.loop !250

._crit_edge:                                      ; preds = %9, %5
  ret void
}